; Function Attrs: mustprogress nofree norecurse nosync nounwind willreturn memory(argmem: read) uwtable
define hidden noundef zeroext i1 @_ZN11hwf_manager6is_intERK3hwf(ptr noundef nonnull readnone align 8 captures(none) dereferenceable(736) %0, ptr noundef nonnull readonly align 8 captures(none) dereferenceable(8) %1) local_unnamed_addr #10 align 2 {
  %3 = load i64, ptr %1, align 8, !tbaa !13
  %4 = and i64 %3, 9218868437227405312
  switch i64 %4, label %5 [
    i64 9218868437227405312, label %19
    i64 0, label %19
  ]

5:                                                ; preds = %2
  %6 = lshr i64 %3, 52
  %7 = trunc nuw nsw i64 %6 to i32
  %8 = and i32 %7, 2047
  %9 = icmp samesign ugt i32 %8, 1074
  br i1 %9, label %19, label %10

10:                                               ; preds = %5
  %11 = icmp samesign ult i32 %8, 1023
  br i1 %11, label %19, label %12

12:                                               ; preds = %10
  %13 = and i64 %3, 4503599627370495
  %14 = sub nuw nsw i32 1075, %8
  %15 = zext nneg i32 %14 to i64
  %notmask = shl nsw i64 -1, %15
  %16 = xor i64 %notmask, -1
  %17 = and i64 %13, %16
  %18 = icmp eq i64 %17, 0
  br label %19

19:                                               ; preds = %2, %2, %12, %5, %10
  %.0 = phi i1 [ false, %2 ], [ %18, %12 ], [ true, %5 ], [ false, %10 ], [ false, %2 ]
  ret i1 %.0
}